target datalayout = "e-m:e-p270:32:32-p271:32:32-p272:64:64-i64:64-i128:128-f80:128-n8:16:32:64-S128"
target triple = "x86_64-pc-linux-gnu"

%union.pthread_mutex_t = type { %struct.__pthread_mutex_s }
%struct.__pthread_mutex_s = type { i32, i32, i32, i32, i32, i16, i16, %struct.__pthread_internal_list }
%struct.__pthread_internal_list = type { ptr, ptr }
%struct.ccan_list_head = type { %struct.ccan_list_node }
%struct.ccan_list_node = type { ptr, ptr }
%struct.rb_thread_struct = type { %struct.ccan_list_node, i64, ptr, ptr, ptr, ptr, %struct.rb_thread_sched_item, i8, i32, i64, ptr, i64, i64, i8, i8, i32, ptr, i64, i64, i64, i64, %union.pthread_mutex_t, %struct.rb_unblock_callback, i64, ptr, %struct.ccan_list_head, ptr, %union.anon, i32, i64, ptr, i64, i32, i64, ptr, %struct.rb_ext_config }
%struct.rb_thread_sched_item = type { %struct.anon.7, %struct.rb_thread_sched_waiting, i8, i8, ptr, ptr }
%struct.anon.7 = type { %struct.ccan_list_node, %struct.ccan_list_node, %struct.ccan_list_node, %struct.ccan_list_node, %struct.ccan_list_node }
%struct.rb_thread_sched_waiting = type { i32, %struct.anon.8, %struct.ccan_list_node }
%struct.anon.8 = type { i64, i32, i32 }
%struct.rb_unblock_callback = type { ptr, ptr }
%union.anon = type { %struct.anon.9 }
%struct.anon.9 = type { i64, i64, i32 }
%struct.rb_ext_config = type { i8 }
%struct.rb_execution_context_struct = type { ptr, i64, ptr, ptr, i32, i32, ptr, ptr, ptr, i64, i64, i64, ptr, i64, ptr, i64, i64, i8, i8, i64, %struct.anon.11 }
%struct.anon.11 = type { ptr, ptr, i64, [1 x %struct.__jmp_buf_tag] }
%struct.__jmp_buf_tag = type { [8 x i64], i32, %struct.__sigset_t }
%struct.__sigset_t = type { [16 x i64] }
%union.pthread_attr_t = type { i64, [48 x i8] }

; Function Attrs: nounwind sspstrong uwtable
define internal i32 @get_stack(ptr noundef %0, ptr noundef %1) #0 {
  %3 = alloca i32, align 4
  %4 = alloca ptr, align 8
  %5 = alloca ptr, align 8
  %6 = alloca %union.pthread_attr_t, align 8
  %7 = alloca i64, align 8
  %8 = alloca i32, align 4
  %9 = alloca i32, align 4
  %10 = alloca i32, align 4
  %11 = alloca i32, align 4
  store ptr %0, ptr %4, align 8, !tbaa !14
  store ptr %1, ptr %5, align 8, !tbaa !24
  call void @llvm.lifetime.start.p0(i64 56, ptr %6) #16
  call void @llvm.lifetime.start.p0(i64 8, ptr %7) #16
  store i64 0, ptr %7, align 8, !tbaa !22
  call void @llvm.lifetime.start.p0(i64 4, ptr %8) #16
  %12 = call i64 @pthread_self() #37
  %13 = call i32 @pthread_getattr_np(i64 noundef %12, ptr noundef %6) #16
  store i32 %13, ptr %8, align 4, !tbaa !15
  %14 = load i32, ptr %8, align 4, !tbaa !15
  %15 = icmp ne i32 %14, 0
  br i1 %15, label %16, label %18

16:                                               ; preds = %2
  %17 = load i32, ptr %8, align 4, !tbaa !15
  store i32 %17, ptr %3, align 4
  store i32 1, ptr %9, align 4
  br label %19

18:                                               ; preds = %2
  store i32 0, ptr %9, align 4
  br label %19

19:                                               ; preds = %18, %16
  call void @llvm.lifetime.end.p0(i64 4, ptr %8) #16
  %20 = load i32, ptr %9, align 4
  switch i32 %20, label %53 [
    i32 0, label %21
  ]

21:                                               ; preds = %19
  call void @llvm.lifetime.start.p0(i64 4, ptr %10) #16
  %22 = load ptr, ptr %4, align 8, !tbaa !14
  %23 = load ptr, ptr %5, align 8, !tbaa !24
  %24 = call i32 @pthread_attr_getstack(ptr noundef %6, ptr noundef %22, ptr noundef %23) #16
  store i32 %24, ptr %10, align 4, !tbaa !15
  %25 = load i32, ptr %10, align 4, !tbaa !15
  %26 = icmp ne i32 %25, 0
  br i1 %26, label %27, label %29

27:                                               ; preds = %21
  %28 = load i32, ptr %10, align 4, !tbaa !15
  store i32 %28, ptr %3, align 4
  store i32 1, ptr %9, align 4
  br label %30

29:                                               ; preds = %21
  store i32 0, ptr %9, align 4
  br label %30

30:                                               ; preds = %29, %27
  call void @llvm.lifetime.end.p0(i64 4, ptr %10) #16
  %31 = load i32, ptr %9, align 4
  switch i32 %31, label %53 [
    i32 0, label %32
  ]

32:                                               ; preds = %30
  %33 = load ptr, ptr %4, align 8, !tbaa !14
  %34 = load ptr, ptr %33, align 8, !tbaa !14
  %35 = load ptr, ptr %5, align 8, !tbaa !24
  %36 = load i64, ptr %35, align 8, !tbaa !22
  %37 = getelementptr i8, ptr %34, i64 %36
  %38 = load ptr, ptr %4, align 8, !tbaa !14
  store ptr %37, ptr %38, align 8, !tbaa !14
  call void @llvm.lifetime.start.p0(i64 4, ptr %11) #16
  %39 = call i32 @pthread_attr_getguardsize(ptr noundef %6, ptr noundef %7) #16
  store i32 %39, ptr %11, align 4, !tbaa !15
  %40 = load i32, ptr %11, align 4, !tbaa !15
  %41 = icmp ne i32 %40, 0
  br i1 %41, label %42, label %44

42:                                               ; preds = %32
  %43 = load i32, ptr %11, align 4, !tbaa !15
  store i32 %43, ptr %3, align 4
  store i32 1, ptr %9, align 4
  br label %45

44:                                               ; preds = %32
  store i32 0, ptr %9, align 4
  br label %45

45:                                               ; preds = %44, %42
  call void @llvm.lifetime.end.p0(i64 4, ptr %11) #16
  %46 = load i32, ptr %9, align 4
  switch i32 %46, label %53 [
    i32 0, label %47
  ]

47:                                               ; preds = %45
  %48 = load i64, ptr %7, align 8, !tbaa !22
  %49 = load ptr, ptr %5, align 8, !tbaa !24
  %50 = load i64, ptr %49, align 8, !tbaa !22
  %51 = sub i64 %50, %48
  store i64 %51, ptr %49, align 8, !tbaa !22
  %52 = call i32 @pthread_attr_destroy(ptr noundef %6) #16
  store i32 0, ptr %3, align 4
  store i32 1, ptr %9, align 4
  br label %53

53:                                               ; preds = %47, %45, %30, %19
  call void @llvm.lifetime.end.p0(i64 8, ptr %7) #16
  call void @llvm.lifetime.end.p0(i64 56, ptr %6) #16
  %54 = load i32, ptr %3, align 4
  ret i32 %54
}

; Function Attrs: nounwind sspstrong uwtable
define hidden i32 @ruby_stack_overflowed_p(ptr noundef %0, ptr noundef %1) #0 {
  %3 = alloca i32, align 4
  %4 = alloca ptr, align 8
  %5 = alloca ptr, align 8
  %6 = alloca ptr, align 8
  %7 = alloca i64, align 8
  %8 = alloca i64, align 8
  %9 = alloca i32, align 4
  store ptr %0, ptr %4, align 8, !tbaa !12
  store ptr %1, ptr %5, align 8, !tbaa !14
  call void @llvm.lifetime.start.p0(i64 8, ptr %6) #16
  call void @llvm.lifetime.start.p0(i64 8, ptr %7) #16
  call void @llvm.lifetime.start.p0(i64 8, ptr %8) #16
  store i64 1048576, ptr %8, align 8, !tbaa !22
  %10 = call i32 @get_stack(ptr noundef %6, ptr noundef %7)
  %11 = icmp eq i32 %10, 0
  br i1 %11, label %12, label %17

12:                                               ; preds = %2
  %13 = load ptr, ptr %6, align 8, !tbaa !14
  %14 = load i64, ptr %7, align 8, !tbaa !22
  %15 = sub i64 0, %14
  %16 = getelementptr i8, ptr %13, i64 %15
  store ptr %16, ptr %6, align 8, !tbaa !14
  br label %38

17:                                               ; preds = %2
  %18 = load ptr, ptr %4, align 8, !tbaa !12
  %19 = icmp ne ptr %18, null
  br i1 %19, label %20, label %36

20:                                               ; preds = %17
  %21 = load ptr, ptr %4, align 8, !tbaa !12
  %22 = getelementptr inbounds nuw %struct.rb_thread_struct, ptr %21, i32 0, i32 5
  %23 = load ptr, ptr %22, align 8, !tbaa !75
  %24 = getelementptr inbounds nuw %struct.rb_execution_context_struct, ptr %23, i32 0, i32 20
  %25 = getelementptr inbounds nuw %struct.anon.11, ptr %24, i32 0, i32 2
  %26 = load i64, ptr %25, align 8, !tbaa !165
  store i64 %26, ptr %7, align 8, !tbaa !22
  %27 = load ptr, ptr %4, align 8, !tbaa !12
  %28 = getelementptr inbounds nuw %struct.rb_thread_struct, ptr %27, i32 0, i32 5
  %29 = load ptr, ptr %28, align 8, !tbaa !75
  %30 = getelementptr inbounds nuw %struct.rb_execution_context_struct, ptr %29, i32 0, i32 20
  %31 = getelementptr inbounds nuw %struct.anon.11, ptr %30, i32 0, i32 0
  %32 = load ptr, ptr %31, align 8, !tbaa !166
  %33 = load i64, ptr %7, align 8, !tbaa !22
  %34 = sub i64 0, %33
  %35 = getelementptr i8, ptr %32, i64 %34
  store ptr %35, ptr %6, align 8, !tbaa !14
  br label %37

36:                                               ; preds = %17
  store i32 0, ptr %3, align 4
  store i32 1, ptr %9, align 4
  br label %65

37:                                               ; preds = %20
  br label %38

38:                                               ; preds = %37, %12
  %39 = load i64, ptr %7, align 8, !tbaa !22
  %40 = udiv i64 %39, 5
  store i64 %40, ptr %7, align 8, !tbaa !22
  %41 = load i64, ptr %7, align 8, !tbaa !22
  %42 = icmp ugt i64 %41, 1048576
  br i1 %42, label %43, label %44

43:                                               ; preds = %38
  store i64 1048576, ptr %7, align 8, !tbaa !22
  br label %44

44:                                               ; preds = %43, %38
  %45 = load i64, ptr %7, align 8, !tbaa !22
  %46 = load ptr, ptr %6, align 8, !tbaa !14
  %47 = ptrtoint ptr %46 to i64
  %48 = icmp ugt i64 %45, %47
  br i1 %48, label %49, label %52

49:                                               ; preds = %44
  %50 = load ptr, ptr %6, align 8, !tbaa !14
  %51 = ptrtoint ptr %50 to i64
  store i64 %51, ptr %7, align 8, !tbaa !22
  br label %52

52:                                               ; preds = %49, %44
  %53 = load ptr, ptr %5, align 8, !tbaa !14
  %54 = load ptr, ptr %6, align 8, !tbaa !14
  %55 = load i64, ptr %7, align 8, !tbaa !22
  %56 = sub i64 0, %55
  %57 = getelementptr i8, ptr %54, i64 %56
  %58 = icmp ugt ptr %53, %57
  br i1 %58, label %59, label %64

59:                                               ; preds = %52
  %60 = load ptr, ptr %5, align 8, !tbaa !14
  %61 = load ptr, ptr %6, align 8, !tbaa !14
  %62 = icmp ule ptr %60, %61
  br i1 %62, label %63, label %64

63:                                               ; preds = %59
  store i32 1, ptr %3, align 4
  store i32 1, ptr %9, align 4
  br label %65

64:                                               ; preds = %59, %52
  store i32 0, ptr %3, align 4
  store i32 1, ptr %9, align 4
  br label %65

65:                                               ; preds = %64, %63, %36
  call void @llvm.lifetime.end.p0(i64 8, ptr %8) #16
  call void @llvm.lifetime.end.p0(i64 8, ptr %7) #16
  call void @llvm.lifetime.end.p0(i64 8, ptr %6) #16
  %66 = load i32, ptr %3, align 4
  ret i32 %66
}