; Function Attrs: nounwind sspstrong uwtable
define hidden range(i32 0, 2) i32 @ruby_stack_overflowed_p(ptr noundef readonly captures(address_is_null) %0, ptr noundef readnone captures(address) %1) local_unnamed_addr #0 {
  %3 = alloca %union.pthread_attr_t, align 8
  %4 = alloca i64, align 8
  %5 = alloca ptr, align 8
  %6 = alloca i64, align 8
  call void @llvm.lifetime.start.p0(i64 8, ptr nonnull %5) #17
  call void @llvm.lifetime.start.p0(i64 8, ptr nonnull %6) #17
  call void @llvm.lifetime.start.p0(i64 56, ptr nonnull %3) #17
  call void @llvm.lifetime.start.p0(i64 8, ptr nonnull %4) #17
  store i64 0, ptr %4, align 8, !tbaa !145
  %7 = tail call i64 @pthread_self() #45
  %8 = call i32 @pthread_getattr_np(i64 noundef %7, ptr noundef nonnull %3) #17
  %.not.i = icmp eq i32 %8, 0
  br i1 %.not.i, label %9, label %21

9:                                                ; preds = %2
  %10 = call i32 @pthread_attr_getstack(ptr noundef nonnull %3, ptr noundef nonnull %5, ptr noundef nonnull %6) #17
  %.not21.i = icmp eq i32 %10, 0
  br i1 %.not21.i, label %11, label %21

11:                                               ; preds = %9
  %12 = load ptr, ptr %5, align 8, !tbaa !48
  %13 = load i64, ptr %6, align 8, !tbaa !145
  %14 = getelementptr i8, ptr %12, i64 %13
  store ptr %14, ptr %5, align 8, !tbaa !48
  %15 = call i32 @pthread_attr_getguardsize(ptr noundef nonnull %3, ptr noundef nonnull %4) #17
  %.not22.i = icmp eq i32 %15, 0
  br i1 %.not22.i, label %16, label %21

16:                                               ; preds = %11
  %17 = load i64, ptr %4, align 8, !tbaa !145
  %18 = load i64, ptr %6, align 8, !tbaa !145
  %19 = sub i64 %18, %17
  store i64 %19, ptr %6, align 8, !tbaa !145
  %20 = call i32 @pthread_attr_destroy(ptr noundef nonnull %3) #17
  call void @llvm.lifetime.end.p0(i64 8, ptr nonnull %4) #17
  call void @llvm.lifetime.end.p0(i64 56, ptr nonnull %3) #17
  br label %27

21:                                               ; preds = %11, %9, %2
  call void @llvm.lifetime.end.p0(i64 8, ptr nonnull %4) #17
  call void @llvm.lifetime.end.p0(i64 56, ptr nonnull %3) #17
  %.not = icmp eq ptr %0, null
  br i1 %.not, label %35, label %22

22:                                               ; preds = %21
  %23 = getelementptr inbounds nuw i8, ptr %0, i64 48
  %24 = load ptr, ptr %23, align 8, !tbaa !74
  %25 = getelementptr inbounds nuw i8, ptr %24, i64 160
  %26 = getelementptr inbounds nuw i8, ptr %24, i64 144
  br label %27

27:                                               ; preds = %22, %16
  %.sink14.in = phi ptr [ %25, %22 ], [ %6, %16 ]
  %.sink.in = phi ptr [ %26, %22 ], [ %5, %16 ]
  %.sink = load ptr, ptr %.sink.in, align 8, !tbaa !48
  %.sink14 = load i64, ptr %.sink14.in, align 8, !tbaa !145
  %28 = sub i64 0, %.sink14
  %29 = getelementptr i8, ptr %.sink, i64 %28
  %30 = udiv i64 %.sink14, 5
  %31 = ptrtoint ptr %29 to i64
  %spec.store.select = call i64 @llvm.umin.i64(i64 %30, i64 %31)
  %spec.select = call i64 @llvm.umin.i64(i64 %spec.store.select, i64 1048576)
  %32 = sub nsw i64 0, %spec.select
  %33 = getelementptr i8, ptr %29, i64 %32
  %34 = icmp ugt ptr %1, %33
  %.not9 = icmp ule ptr %1, %29
  %or.cond.not = and i1 %.not9, %34
  %spec.select10 = zext i1 %or.cond.not to i32
  br label %35

35:                                               ; preds = %27, %21
  %.0 = phi i32 [ 0, %21 ], [ %spec.select10, %27 ]
  call void @llvm.lifetime.end.p0(i64 8, ptr nonnull %6) #17
  call void @llvm.lifetime.end.p0(i64 8, ptr nonnull %5) #17
  ret i32 %.0
}